; Function Attrs: mustprogress nofree norecurse nosync nounwind willreturn memory(write, argmem: readwrite, inaccessiblemem: none) uwtable
define void @_ZN7openvdb5v11_02io19DelayedLoadMetadata17setCompressedSizeEmRKl(ptr nocapture noundef nonnull readonly align 8 dereferenceable(56) %this, i64 noundef %index, ptr nocapture noundef nonnull readonly align 8 dereferenceable(8) %value) local_unnamed_addr #13 align 2 {
entry:
  %0 = load i64, ptr %value, align 8
  %mCompressedSize = getelementptr inbounds i8, ptr %this, i64 32
  %1 = load ptr, ptr %mCompressedSize, align 8
  %add.ptr.i = getelementptr inbounds i64, ptr %1, i64 %index
  store i64 %0, ptr %add.ptr.i, align 8
  ret void
}